; Function Attrs: mustprogress uwtable
define noundef signext i8 @uset_resemblesPattern_75(ptr noundef %pattern, i32 noundef %patternLength, i32 noundef %pos) local_unnamed_addr #0 personality ptr @__gxx_personality_v0 {
invoke.cont:
  %pat = alloca %"class.icu_75::UnicodeString", align 8
  call void @_ZN6icu_7513UnicodeStringC1EPKDsi(ptr noundef nonnull align 8 dereferenceable(64) %pat, ptr noundef %pattern, i32 noundef %patternLength)
  %fUnion.i.i = getelementptr inbounds i8, ptr %pat, i64 8
  %0 = load i16, ptr %fUnion.i.i, align 8
  %cmp.i.i = icmp slt i16 %0, 0
  %1 = ashr i16 %0, 5
  %shr.i.i = sext i16 %1 to i32
  %fLength.i = getelementptr inbounds i8, ptr %pat, i64 12
  %2 = load i32, ptr %fLength.i, align 4
  %cond.i = select i1 %cmp.i.i, i32 %2, i32 %shr.i.i
  %add = add nsw i32 %pos, 1
  %cmp = icmp slt i32 %add, %cond.i
  %cmp.i.i3 = icmp ugt i32 %cond.i, %pos
  %or.cond = and i1 %cmp, %cmp.i.i3
  br i1 %or.cond, label %invoke.cont1, label %lor.rhs

invoke.cont1:                                     ; preds = %invoke.cont
  %3 = and i16 %0, 2
  %tobool.not.i.i.i = icmp eq i16 %3, 0
  %fBuffer.i.i.i = getelementptr inbounds i8, ptr %pat, i64 10
  %fArray.i.i.i = getelementptr inbounds i8, ptr %pat, i64 24
  %4 = load ptr, ptr %fArray.i.i.i, align 8
  %cond.i2.i.i = select i1 %tobool.not.i.i.i, ptr %4, ptr %fBuffer.i.i.i
  %idxprom.i.i = sext i32 %pos to i64
  %arrayidx.i.i = getelementptr inbounds i16, ptr %cond.i2.i.i, i64 %idxprom.i.i
  %5 = load i16, ptr %arrayidx.i.i, align 2
  %cmp3 = icmp eq i16 %5, 91
  br i1 %cmp3, label %lor.end, label %lor.rhs

lor.rhs:                                          ; preds = %invoke.cont1, %invoke.cont
  %call5 = invoke noundef signext i8 @_ZN6icu_7510UnicodeSet16resemblesPatternERKNS_13UnicodeStringEi(ptr noundef nonnull align 8 dereferenceable(64) %pat, i32 noundef %pos)
          to label %invoke.cont4 unwind label %lpad

invoke.cont4:                                     ; preds = %lor.rhs
  %tobool = icmp ne i8 %call5, 0
  %6 = zext i1 %tobool to i8
  br label %lor.end

lor.end:                                          ; preds = %invoke.cont4, %invoke.cont1
  %conv6 = phi i8 [ 1, %invoke.cont1 ], [ %6, %invoke.cont4 ]
  call void @_ZN6icu_7513UnicodeStringD1Ev(ptr noundef nonnull align 8 dereferenceable(64) %pat) #3
  ret i8 %conv6

lpad:                                             ; preds = %lor.rhs
  %7 = landingpad { ptr, i32 }
          cleanup
  call void @_ZN6icu_7513UnicodeStringD1Ev(ptr noundef nonnull align 8 dereferenceable(64) %pat) #3
  resume { ptr, i32 } %7
}